; Function Attrs: mustprogress nofree norecurse nosync nounwind willreturn memory(read, argmem: write, inaccessiblemem: none) uwtable
define noundef i32 @casadi_register_importer_shell(ptr noundef writeonly captures(none) initializes((0, 28), (32, 40)) %0) #3 {
  store ptr @_ZN6casadi13ShellCompiler7creatorERKNSt7__cxx1112basic_stringIcSt11char_traitsIcESaIcEEE, ptr %0, align 8, !tbaa !3
  %2 = getelementptr inbounds nuw i8, ptr %0, i64 8
  store ptr @.str, ptr %2, align 8, !tbaa !12
  %3 = load ptr, ptr @_ZN6casadi13ShellCompiler8meta_docB5cxx11E, align 8, !tbaa !13
  %4 = getelementptr inbounds nuw i8, ptr %0, i64 16
  store ptr %3, ptr %4, align 8, !tbaa !17
  %5 = getelementptr inbounds nuw i8, ptr %0, i64 24
  store i32 31, ptr %5, align 8, !tbaa !18
  %6 = getelementptr inbounds nuw i8, ptr %0, i64 32
  store ptr @_ZN6casadi13ShellCompiler8options_E, ptr %6, align 8, !tbaa !19
  ret i32 0
}